(dp1
S'pitanga_14_a.png'
p2
I28
sS'c04_11_a.png'
p3
I5
sS'c05_10_a.png'
p4
I6
sS'c02_08_a.png'
p5
I3
sS'c08_18_a.png'
p6
I9
sS'jequetiba_07_a.png'
p7
I23
sS'descon4_13_a.png'
p8
I17
sS'amethystina_11_a.png'
p9
I1
sS'sidifolia_06_a.png'
p10
I29
sS'c09_05_a.png'
p11
I10
sS'limao_12_a.png'
p12
I25
sS'c06_09_a.png'
p13
I7
sS'foetida foetida_07_a.png'
p14
I20
sS'pitanga_16_a.png'
p15
I28
sS'c06_01_a.png'
p16
I7
sS'foetida fluminensis_16_a.png'
p17
I19
sS'foetida foetida_04_a.png'
p18
I20
sS'sidifolia_16_a.png'
p19
I29
sS'organensis_19_a.png'
p20
I27
sS'c03_02_a.png'
p21
I4
sS'limao_17_a.png'
p22
I25
sS'descon2_10_a.png'
p23
I15
sS'c07_09_a.png'
p24
I8
sS'descon4_15_a.png'
p25
I17
sS'descon3_15_a.png'
p26
I16
sS'foetida trigosa_16_a.png'
p27
I21
sS'organensis_06_a.png'
p28
I27
sS'caerulea_07_a.png'
p29
I12
sS'descon4_02_a.png'
p30
I17
sS'c04_01_a.png'
p31
I5
sS'foetida foetida_14_a.png'
p32
I20
sS'pitanga_10_a.png'
p33
I28
sS'c06_16_a.png'
p34
I7
sS'c04_05_a.png'
p35
I5
sS'descon3_12_a.png'
p36
I16
sS'c02_01_a.png'
p37
I3
sS'c07_16_a.png'
p38
I8
sS'foetida trigosa_12_a.png'
p39
I21
sS'foetida foetida_05_a.png'
p40
I20
sS'pitanga_01_a.png'
p41
I28
sS'actinia_01_a.png'
p42
I0
sS'c10_01_a.png'
p43
I11
sS'c06_08_a.png'
p44
I7
sS'c05_01_a.png'
p45
I6
sS'foetida fluminensis_14_a.png'
p46
I19
sS'c10_02_a.png'
p47
I11
sS'sidifolia_08_a.png'
p48
I29
sS'descon1_02_a.png'
p49
I14
sS'maliformis_12_a.png'
p50
I26
sS'pitanga_05_a.png'
p51
I28
sS'foetida trigosa_01_a.png'
p52
I21
sS'foetida trigosa_07_a.png'
p53
I21
sS'c10_10_a.png'
p54
I11
sS'limao_02_a.png'
p55
I25
sS'descon3_18_a.png'
p56
I16
sS'descon4_16_a.png'
p57
I17
sS'descon3_10_a.png'
p58
I16
sS'sidifolia_03_a.png'
p59
I29
sS'descon3_05_a.png'
p60
I16
sS'foetida trigosa_13_a.png'
p61
I21
sS'descon1_01_a.png'
p62
I14
sS'limao_09_a.png'
p63
I25
sS'foetida trigosa_05_a.png'
p64
I21
sS'c01_14_a.png'
p65
I2
sS'c07_07_a.png'
p66
I8
sS'descon2_08_a.png'
p67
I15
sS'c07_10_a.png'
p68
I8
sS'c06_17_a.png'
p69
I7
sS'c04_04_a.png'
p70
I5
sS'c03_07_a.png'
p71
I4
sS'c10_15_a.png'
p72
I11
sS'actinia_15_a.png'
p73
I0
sS'foetida fluminensis_10_a.png'
p74
I19
sS'descon5_13_a.png'
p75
I18
sS'jequetiba_01_a.png'
p76
I23
sS'descon1_08_a.png'
p77
I14
sS'c06_07_a.png'
p78
I7
sS'coquecasa_07_a.png'
p79
I13
sS'foetida foetida_02_a.png'
p80
I20
sS'caerulea_16_a.png'
p81
I12
sS'foetida trigosa_18_a.png'
p82
I21
sS'actinia_12_a.png'
p83
I0
sS'jequetiba_15_a.png'
p84
I23
sS'organensis_18_a.png'
p85
I27
sS'descon2_06_a.png'
p86
I15
sS'limao_11_a.png'
p87
I25
sS'c03_18_a.png'
p88
I4
sS'c09_02_a.png'
p89
I10
sS'coquecasa_02_a.png'
p90
I13
sS'jequetiba_19_a.png'
p91
I23
sS'c07_02_a.png'
p92
I8
sS'c09_06_a.png'
p93
I10
sS'actinia_10_a.png'
p94
I0
sS'actinia_05_a.png'
p95
I0
sS'jequetiba_18_a.png'
p96
I23
sS'lima_17_a.png'
p97
I24
sS'descon1_09_a.png'
p98
I14
sS'jequetiba_06_a.png'
p99
I23
sS'limao_13_a.png'
p100
I25
sS'c04_06_a.png'
p101
I5
sS'limao_19_a.png'
p102
I25
sS'descon3_19_a.png'
p103
I16
sS'coquecasa_03_a.png'
p104
I13
sS'foetida trigosa_11_a.png'
p105
I21
sS'coquecasa_18_a.png'
p106
I13
sS'c10_03_a.png'
p107
I11
sS'c05_12_a.png'
p108
I6
sS'gibertii_15_a.png'
p109
I22
sS'descon5_12_a.png'
p110
I18
sS'organensis_10_a.png'
p111
I27
sS'c02_05_a.png'
p112
I3
sS'sidifolia_05_a.png'
p113
I29
sS'c09_15_a.png'
p114
I10
sS'caerulea_03_a.png'
p115
I12
sS'c07_03_a.png'
p116
I8
sS'c10_13_a.png'
p117
I11
sS'limao_07_a.png'
p118
I25
sS'c03_15_a.png'
p119
I4
sS'c06_18_a.png'
p120
I7
sS'maliformis_16_a.png'
p121
I26
sS'c08_09_a.png'
p122
I9
sS'c01_01_a.png'
p123
I2
sS'maliformis_13_a.png'
p124
I26
sS'c08_14_a.png'
p125
I9
sS'c05_20_a.png'
p126
I6
sS'c04_03_a.png'
p127
I5
sS'foetida trigosa_19_a.png'
p128
I21
sS'jequetiba_14_a.png'
p129
I23
sS'c07_20_a.png'
p130
I8
sS'c04_18_a.png'
p131
I5
sS'jequetiba_02_a.png'
p132
I23
sS'limao_16_a.png'
p133
I25
sS'c10_11_a.png'
p134
I11
sS'actinia_19_a.png'
p135
I0
sS'amethystina_15_a.png'
p136
I1
sS'c05_14_a.png'
p137
I6
sS'organensis_17_a.png'
p138
I27
sS'coquecasa_11_a.png'
p139
I13
sS'foetida trigosa_14_a.png'
p140
I21
sS'c09_07_a.png'
p141
I10
sS'descon5_11_a.png'
p142
I18
sS'c09_14_a.png'
p143
I10
sS'c04_07_a.png'
p144
I5
sS'actinia_17_a.png'
p145
I0
sS'foetida foetida_13_a.png'
p146
I20
sS'sidifolia_12_a.png'
p147
I29
sS'foetida trigosa_10_a.png'
p148
I21
sS'caerulea_09_a.png'
p149
I12
sS'limao_05_a.png'
p150
I25
sS'c07_13_a.png'
p151
I8
sS'descon4_06_a.png'
p152
I17
sS'organensis_04_a.png'
p153
I27
sS'pitanga_09_a.png'
p154
I28
sS'foetida fluminensis_11_a.png'
p155
I19
sS'c04_09_a.png'
p156
I5
sS'gibertii_06_a.png'
p157
I22
sS'c08_19_a.png'
p158
I9
sS'descon4_04_a.png'
p159
I17
sS'c02_12_a.png'
p160
I3
sS'gibertii_16_a.png'
p161
I22
sS'pitanga_17_a.png'
p162
I28
sS'organensis_16_a.png'
p163
I27
sS'limao_08_a.png'
p164
I25
sS'descon5_15_a.png'
p165
I18
sS'c10_14_a.png'
p166
I11
sS'jequetiba_04_a.png'
p167
I23
sS'descon1_18_a.png'
p168
I14
sS'limao_01_a.png'
p169
I25
sS'foetida foetida_20_a.png'
p170
I20
sS'c04_19_a.png'
p171
I5
sS'c09_18_a.png'
p172
I10
sS'c01_17_a.png'
p173
I2
sS'caerulea_02_a.png'
p174
I12
sS'amethystina_02_a.png'
p175
I1
sS'c10_18_a.png'
p176
I11
sS'c02_20_a.png'
p177
I3
sS'lima_04_a.png'
p178
I24
sS'c07_11_a.png'
p179
I8
sS'gibertii_09_a.png'
p180
I22
sS'descon1_12_a.png'
p181
I14
sS'foetida fluminensis_17_a.png'
p182
I19
sS'caerulea_11_a.png'
p183
I12
sS'c06_10_a.png'
p184
I7
sS'descon4_08_a.png'
p185
I17
sS'caerulea_19_a.png'
p186
I12
sS'organensis_13_a.png'
p187
I27
sS'caerulea_04_a.png'
p188
I12
sS'pitanga_03_a.png'
p189
I28
sS'gibertii_12_a.png'
p190
I22
sS'descon4_20_a.png'
p191
I17
sS'descon5_02_a.png'
p192
I18
sS'descon2_05_a.png'
p193
I15
sS'descon5_07_a.png'
p194
I18
sS'c01_15_a.png'
p195
I2
sS'descon2_03_a.png'
p196
I15
sS'amethystina_05_a.png'
p197
I1
sS'c01_02_a.png'
p198
I2
sS'lima_09_a.png'
p199
I24
sS'c01_11_a.png'
p200
I2
sS'organensis_07_a.png'
p201
I27
sS'c05_07_a.png'
p202
I6
sS'c01_13_a.png'
p203
I2
sS'descon2_18_a.png'
p204
I15
sS'actinia_06_a.png'
p205
I0
sS'c06_03_a.png'
p206
I7
sS'maliformis_08_a.png'
p207
I26
sS'descon5_08_a.png'
p208
I18
sS'c07_17_a.png'
p209
I8
sS'maliformis_10_a.png'
p210
I26
sS'maliformis_02_a.png'
p211
I26
sS'descon3_07_a.png'
p212
I16
sS'coquecasa_06_a.png'
p213
I13
sS'gibertii_13_a.png'
p214
I22
sS'descon1_16_a.png'
p215
I14
sS'descon2_12_a.png'
p216
I15
sS'c01_20_a.png'
p217
I2
sS'c10_19_a.png'
p218
I11
sS'organensis_03_a.png'
p219
I27
sS'jequetiba_03_a.png'
p220
I23
sS'c08_05_a.png'
p221
I9
sS'pitanga_15_a.png'
p222
I28
sS'c01_07_a.png'
p223
I2
sS'amethystina_09_a.png'
p224
I1
sS'foetida fluminensis_09_a.png'
p225
I19
sS'foetida fluminensis_03_a.png'
p226
I19
sS'descon3_11_a.png'
p227
I16
sS'c02_15_a.png'
p228
I3
sS'descon4_07_a.png'
p229
I17
sS'c06_06_a.png'
p230
I7
sS'foetida fluminensis_06_a.png'
p231
I19
sS'maliformis_15_a.png'
p232
I26
sS'gibertii_10_a.png'
p233
I22
sS'organensis_02_a.png'
p234
I27
sS'gibertii_18_a.png'
p235
I22
sS'c03_16_a.png'
p236
I4
sS'descon1_05_a.png'
p237
I14
sS'c05_09_a.png'
p238
I6
sS'c09_10_a.png'
p239
I10
sS'pitanga_11_a.png'
p240
I28
sS'lima_16_a.png'
p241
I24
sS'foetida fluminensis_19_a.png'
p242
I19
sS'amethystina_01_a.png'
p243
I1
sS'c06_19_a.png'
p244
I7
sS'jequetiba_05_a.png'
p245
I23
sS'c01_18_a.png'
p246
I2
sS'caerulea_06_a.png'
p247
I12
sS'c01_06_a.png'
p248
I2
sS'maliformis_14_a.png'
p249
I26
sS'descon1_06_a.png'
p250
I14
sS'c04_08_a.png'
p251
I5
sS'maliformis_06_a.png'
p252
I26
sS'gibertii_03_a.png'
p253
I22
sS'lima_20_a.png'
p254
I24
sS'c05_17_a.png'
p255
I6
sS'actinia_07_a.png'
p256
I0
sS'c09_03_a.png'
p257
I10
sS'foetida foetida_18_a.png'
p258
I20
sS'organensis_09_a.png'
p259
I27
sS'pitanga_04_a.png'
p260
I28
sS'amethystina_08_a.png'
p261
I1
sS'descon2_02_a.png'
p262
I15
sS'foetida trigosa_09_a.png'
p263
I21
sS'coquecasa_13_a.png'
p264
I13
sS'lima_01_a.png'
p265
I24
sS'amethystina_16_a.png'
p266
I1
sS'gibertii_08_a.png'
p267
I22
sS'c10_06_a.png'
p268
I11
sS'organensis_14_a.png'
p269
I27
sS'jequetiba_13_a.png'
p270
I23
sS'actinia_11_a.png'
p271
I0
sS'sidifolia_10_a.png'
p272
I29
sS'c06_20_a.png'
p273
I7
sS'c08_10_a.png'
p274
I9
sS'descon1_17_a.png'
p275
I14
sS'c06_14_a.png'
p276
I7
sS'lima_12_a.png'
p277
I24
sS'amethystina_17_a.png'
p278
I1
sS'caerulea_05_a.png'
p279
I12
sS'c05_04_a.png'
p280
I6
sS'c04_10_a.png'
p281
I5
sS'c04_15_a.png'
p282
I5
sS'c09_20_a.png'
p283
I10
sS'c08_04_a.png'
p284
I9
sS'maliformis_17_a.png'
p285
I26
sS'descon5_20_a.png'
p286
I18
sS'c05_16_a.png'
p287
I6
sS'c07_12_a.png'
p288
I8
sS'lima_10_a.png'
p289
I24
sS'amethystina_07_a.png'
p290
I1
sS'gibertii_11_a.png'
p291
I22
sS'lima_11_a.png'
p292
I24
sS'c07_08_a.png'
p293
I8
sS'descon1_04_a.png'
p294
I14
sS'c07_06_a.png'
p295
I8
sS'gibertii_05_a.png'
p296
I22
sS'foetida fluminensis_08_a.png'
p297
I19
sS'c03_05_a.png'
p298
I4
sS'foetida trigosa_08_a.png'
p299
I21
sS'descon1_15_a.png'
p300
I14
sS'foetida fluminensis_07_a.png'
p301
I19
sS'coquecasa_19_a.png'
p302
I13
sS'descon2_07_a.png'
p303
I15
sS'descon5_17_a.png'
p304
I18
sS'organensis_08_a.png'
p305
I27
sS'foetida fluminensis_15_a.png'
p306
I19
sS'c07_15_a.png'
p307
I8
sS'sidifolia_18_a.png'
p308
I29
sS'descon5_05_a.png'
p309
I18
sS'lima_14_a.png'
p310
I24
sS'descon5_16_a.png'
p311
I18
sS'c01_12_a.png'
p312
I2
sS'c02_19_a.png'
p313
I3
sS'limao_06_a.png'
p314
I25
sS'descon2_04_a.png'
p315
I15
sS'c07_05_a.png'
p316
I8
sS'pitanga_06_a.png'
p317
I28
sS'descon1_10_a.png'
p318
I14
sS'foetida foetida_09_a.png'
p319
I20
sS'coquecasa_12_a.png'
p320
I13
sS'c03_09_a.png'
p321
I4
sS'gibertii_20_a.png'
p322
I22
sS'c02_06_a.png'
p323
I3
sS'sidifolia_19_a.png'
p324
I29
sS'descon4_19_a.png'
p325
I17
sS'c05_02_a.png'
p326
I6
sS'gibertii_07_a.png'
p327
I22
sS'sidifolia_15_a.png'
p328
I29
sS'c01_16_a.png'
p329
I2
sS'c03_20_a.png'
p330
I4
sS'maliformis_18_a.png'
p331
I26
sS'limao_15_a.png'
p332
I25
sS'organensis_01_a.png'
p333
I27
sS'foetida fluminensis_05_a.png'
p334
I19
sS'descon3_20_a.png'
p335
I16
sS'foetida foetida_17_a.png'
p336
I20
sS'pitanga_07_a.png'
p337
I28
sS'foetida foetida_03_a.png'
p338
I20
sS'descon5_06_a.png'
p339
I18
sS'jequetiba_17_a.png'
p340
I23
sS'c05_19_a.png'
p341
I6
sS'caerulea_15_a.png'
p342
I12
sS'coquecasa_01_a.png'
p343
I13
sS'c08_11_a.png'
p344
I9
sS'amethystina_18_a.png'
p345
I1
sS'c04_17_a.png'
p346
I5
sS'coquecasa_09_a.png'
p347
I13
sS'descon4_01_a.png'
p348
I17
sS'foetida foetida_01_a.png'
p349
I20
sS'c04_20_a.png'
p350
I5
sS'coquecasa_14_a.png'
p351
I13
sS'c03_04_a.png'
p352
I4
sS'gibertii_02_a.png'
p353
I22
sS'descon3_16_a.png'
p354
I16
sS'pitanga_12_a.png'
p355
I28
sS'pitanga_02_a.png'
p356
I28
sS'foetida trigosa_20_a.png'
p357
I21
sS'descon4_12_a.png'
p358
I17
sS'sidifolia_07_a.png'
p359
I29
sS'c04_16_a.png'
p360
I5
sS'c06_12_a.png'
p361
I7
sS'foetida fluminensis_13_a.png'
p362
I19
sS'c02_18_a.png'
p363
I3
sS'c10_17_a.png'
p364
I11
sS'c07_14_a.png'
p365
I8
sS'maliformis_04_a.png'
p366
I26
sS'actinia_20_a.png'
p367
I0
sS'lima_08_a.png'
p368
I24
sS'c01_03_a.png'
p369
I2
sS'c06_04_a.png'
p370
I7
sS'c02_11_a.png'
p371
I3
sS'caerulea_18_a.png'
p372
I12
sS'c03_14_a.png'
p373
I4
sS'c06_11_a.png'
p374
I7
sS'foetida foetida_12_a.png'
p375
I20
sS'c01_08_a.png'
p376
I2
sS'lima_03_a.png'
p377
I24
sS'coquecasa_10_a.png'
p378
I13
sS'c09_12_a.png'
p379
I10
sS'c05_05_a.png'
p380
I6
sS'foetida foetida_11_a.png'
p381
I20
sS'c10_05_a.png'
p382
I11
sS'c09_19_a.png'
p383
I10
sS'c03_01_a.png'
p384
I4
sS'descon4_03_a.png'
p385
I17
sS'descon2_19_a.png'
p386
I15
sS'descon1_11_a.png'
p387
I14
sS'c09_17_a.png'
p388
I10
sS'coquecasa_16_a.png'
p389
I13
sS'lima_06_a.png'
p390
I24
sS'c08_07_a.png'
p391
I9
sS'limao_18_a.png'
p392
I25
sS'jequetiba_20_a.png'
p393
I23
sS'sidifolia_01_a.png'
p394
I29
sS'descon4_14_a.png'
p395
I17
sS'descon3_14_a.png'
p396
I16
sS'lima_15_a.png'
p397
I24
sS'c07_19_a.png'
p398
I8
sS'c10_16_a.png'
p399
I11
sS'lima_19_a.png'
p400
I24
sS'actinia_09_a.png'
p401
I0
sS'maliformis_19_a.png'
p402
I26
sS'organensis_05_a.png'
p403
I27
sS'pitanga_08_a.png'
p404
I28
sS'limao_03_a.png'
p405
I25
sS'descon3_08_a.png'
p406
I16
sS'sidifolia_13_a.png'
p407
I29
sS'descon1_03_a.png'
p408
I14
sS'limao_14_a.png'
p409
I25
sS'lima_05_a.png'
p410
I24
sS'amethystina_10_a.png'
p411
I1
sS'descon3_09_a.png'
p412
I16
sS'descon3_02_a.png'
p413
I16
sS'gibertii_19_a.png'
p414
I22
sS'c05_11_a.png'
p415
I6
sS'caerulea_14_a.png'
p416
I12
sS'pitanga_20_a.png'
p417
I28
sS'c01_10_a.png'
p418
I2
sS'foetida fluminensis_02_a.png'
p419
I19
sS'descon3_03_a.png'
p420
I16
sS'coquecasa_15_a.png'
p421
I13
sS'c09_09_a.png'
p422
I10
sS'c03_17_a.png'
p423
I4
sS'pitanga_13_a.png'
p424
I28
sS'descon2_20_a.png'
p425
I15
sS'foetida foetida_19_a.png'
p426
I20
sS'descon4_18_a.png'
p427
I17
sS'c08_12_a.png'
p428
I9
sS'c08_01_a.png'
p429
I9
sS'foetida trigosa_17_a.png'
p430
I21
sS'c02_17_a.png'
p431
I3
sS'amethystina_03_a.png'
p432
I1
sS'c08_03_a.png'
p433
I9
sS'maliformis_05_a.png'
p434
I26
sS'foetida fluminensis_04_a.png'
p435
I19
sS'descon3_04_a.png'
p436
I16
sS'actinia_18_a.png'
p437
I0
sS'descon3_06_a.png'
p438
I16
sS'actinia_14_a.png'
p439
I0
sS'sidifolia_20_a.png'
p440
I29
sS'coquecasa_17_a.png'
p441
I13
sS'foetida trigosa_04_a.png'
p442
I21
sS'descon2_17_a.png'
p443
I15
sS'actinia_08_a.png'
p444
I0
sS'jequetiba_11_a.png'
p445
I23
sS'sidifolia_09_a.png'
p446
I29
sS'coquecasa_20_a.png'
p447
I13
sS'c09_11_a.png'
p448
I10
sS'c09_04_a.png'
p449
I10
sS'c01_05_a.png'
p450
I2
sS'c08_17_a.png'
p451
I9
sS'c02_04_a.png'
p452
I3
sS'actinia_02_a.png'
p453
I0
sS'amethystina_06_a.png'
p454
I1
sS'sidifolia_17_a.png'
p455
I29
sS'jequetiba_12_a.png'
p456
I23
sS'gibertii_14_a.png'
p457
I22
sS'lima_13_a.png'
p458
I24
sS'maliformis_03_a.png'
p459
I26
sS'descon1_14_a.png'
p460
I14
sS'actinia_03_a.png'
p461
I0
sS'foetida foetida_16_a.png'
p462
I20
sS'c02_16_a.png'
p463
I3
sS'organensis_12_a.png'
p464
I27
sS'limao_10_a.png'
p465
I25
sS'c03_13_a.png'
p466
I4
sS'c05_18_a.png'
p467
I6
sS'c09_13_a.png'
p468
I10
sS'c08_08_a.png'
p469
I9
sS'organensis_20_a.png'
p470
I27
sS'descon5_04_a.png'
p471
I18
sS'c08_16_a.png'
p472
I9
sS'c05_06_a.png'
p473
I6
sS'actinia_04_a.png'
p474
I0
sS'lima_18_a.png'
p475
I24
sS'jequetiba_08_a.png'
p476
I23
sS'pitanga_18_a.png'
p477
I28
sS'amethystina_19_a.png'
p478
I1
sS'c05_08_a.png'
p479
I6
sS'c06_13_a.png'
p480
I7
sS'foetida fluminensis_20_a.png'
p481
I19
sS'foetida foetida_10_a.png'
p482
I20
sS'descon4_05_a.png'
p483
I17
sS'descon5_03_a.png'
p484
I18
sS'pitanga_19_a.png'
p485
I28
sS'sidifolia_14_a.png'
p486
I29
sS'descon5_14_a.png'
p487
I18
sS'c03_12_a.png'
p488
I4
sS'descon4_10_a.png'
p489
I17
sS'c04_13_a.png'
p490
I5
sS'c03_11_a.png'
p491
I4
sS'c02_13_a.png'
p492
I3
sS'amethystina_14_a.png'
p493
I1
sS'descon4_09_a.png'
p494
I17
sS'coquecasa_05_a.png'
p495
I13
sS'organensis_11_a.png'
p496
I27
sS'lima_07_a.png'
p497
I24
sS'c01_19_a.png'
p498
I2
sS'amethystina_20_a.png'
p499
I1
sS'descon3_13_a.png'
p500
I16
sS'c01_04_a.png'
p501
I2
sS'maliformis_07_a.png'
p502
I26
sS'c05_03_a.png'
p503
I6
sS'descon2_16_a.png'
p504
I15
sS'sidifolia_11_a.png'
p505
I29
sS'c05_15_a.png'
p506
I6
sS'descon5_09_a.png'
p507
I18
sS'descon5_01_a.png'
p508
I18
sS'limao_04_a.png'
p509
I25
sS'c08_15_a.png'
p510
I9
sS'descon2_15_a.png'
p511
I15
sS'limao_20_a.png'
p512
I25
sS'c10_12_a.png'
p513
I11
sS'c03_19_a.png'
p514
I4
sS'descon2_09_a.png'
p515
I15
sS'c09_16_a.png'
p516
I10
sS'maliformis_01_a.png'
p517
I26
sS'foetida foetida_08_a.png'
p518
I20
sS'foetida trigosa_02_a.png'
p519
I21
sS'c06_15_a.png'
p520
I7
sS'c02_07_a.png'
p521
I3
sS'c04_12_a.png'
p522
I5
sS'caerulea_17_a.png'
p523
I12
sS'c07_18_a.png'
p524
I8
sS'c10_08_a.png'
p525
I11
sS'c02_03_a.png'
p526
I3
sS'c08_20_a.png'
p527
I9
sS'descon3_17_a.png'
p528
I16
sS'gibertii_04_a.png'
p529
I22
sS'descon5_19_a.png'
p530
I18
sS'descon2_14_a.png'
p531
I15
sS'coquecasa_08_a.png'
p532
I13
sS'c10_07_a.png'
p533
I11
sS'organensis_15_a.png'
p534
I27
sS'actinia_13_a.png'
p535
I0
sS'caerulea_12_a.png'
p536
I12
sS'foetida fluminensis_18_a.png'
p537
I19
sS'c03_03_a.png'
p538
I4
sS'maliformis_20_a.png'
p539
I26
sS'c08_02_a.png'
p540
I9
sS'lima_02_a.png'
p541
I24
sS'c01_09_a.png'
p542
I2
sS'descon5_10_a.png'
p543
I18
sS'c03_08_a.png'
p544
I4
sS'c09_08_a.png'
p545
I10
sS'actinia_16_a.png'
p546
I0
sS'foetida trigosa_03_a.png'
p547
I21
sS'descon2_11_a.png'
p548
I15
sS'c02_02_a.png'
p549
I3
sS'jequetiba_10_a.png'
p550
I23
sS'c03_06_a.png'
p551
I4
sS'c09_01_a.png'
p552
I10
sS'c06_02_a.png'
p553
I7
sS'sidifolia_04_a.png'
p554
I29
sS'descon4_11_a.png'
p555
I17
sS'c10_09_a.png'
p556
I11
sS'caerulea_13_a.png'
p557
I12
sS'descon2_01_a.png'
p558
I15
sS'caerulea_08_a.png'
p559
I12
sS'c03_10_a.png'
p560
I4
sS'maliformis_09_a.png'
p561
I26
sS'foetida foetida_06_a.png'
p562
I20
sS'c08_06_a.png'
p563
I9
sS'descon2_13_a.png'
p564
I15
sS'gibertii_01_a.png'
p565
I22
sS'c02_09_a.png'
p566
I3
sS'c07_01_a.png'
p567
I8
sS'c04_02_a.png'
p568
I5
sS'coquecasa_04_a.png'
p569
I13
sS'foetida trigosa_15_a.png'
p570
I21
sS'c07_04_a.png'
p571
I8
sS'foetida trigosa_06_a.png'
p572
I21
sS'c02_14_a.png'
p573
I3
sS'descon4_17_a.png'
p574
I17
sS'sidifolia_02_a.png'
p575
I29
sS'c06_05_a.png'
p576
I7
sS'c02_10_a.png'
p577
I3
sS'foetida foetida_15_a.png'
p578
I20
sS'jequetiba_09_a.png'
p579
I23
sS'c10_20_a.png'
p580
I11
sS'amethystina_13_a.png'
p581
I1
sS'c04_14_a.png'
p582
I5
sS'c10_04_a.png'
p583
I11
sS'foetida fluminensis_12_a.png'
p584
I19
sS'gibertii_17_a.png'
p585
I22
sS'caerulea_10_a.png'
p586
I12
sS'descon1_20_a.png'
p587
I14
sS'jequetiba_16_a.png'
p588
I23
sS'descon1_19_a.png'
p589
I14
sS'caerulea_01_a.png'
p590
I12
sS'descon5_18_a.png'
p591
I18
sS'maliformis_11_a.png'
p592
I26
sS'amethystina_04_a.png'
p593
I1
sS'c05_13_a.png'
p594
I6
sS'caerulea_20_a.png'
p595
I12
sS'descon1_07_a.png'
p596
I14
sS'foetida fluminensis_01_a.png'
p597
I19
sS'descon1_13_a.png'
p598
I14
sS'descon3_01_a.png'
p599
I16
sS'c08_13_a.png'
p600
I9
sS'amethystina_12_a.png'
p601
I1
s.